target datalayout = "e-m:e-p270:32:32-p271:32:32-p272:64:64-i64:64-i128:128-f80:128-n8:16:32:64-S128"
target triple = "x86_64-pc-linux-gnu"

%struct.slurm_selected_step_t = type { ptr, i32, i32, %struct.slurm_step_id_msg }
%struct.slurm_step_id_msg = type { i64, i32, i32, i32 }
%struct.signal_jobs_args_t = type { ptr, ptr, i32, i8, ptr, ptr, i64, ptr, ptr }
%struct.kill_jobs_resp_job_t = type { i32, ptr, ptr, i32, ptr }

@.str.44 = private unnamed_addr constant [10 x i8] c"job_mgr.c\00", align 1
@__func__._add_signal_job_resp = private unnamed_addr constant [21 x i8] c"_add_signal_job_resp\00", align 1

; Function Attrs: nounwind uwtable
define internal void @_add_signal_job_resp(ptr noundef %0, ptr noundef %1, i32 noundef %2, ptr noundef %3, ptr noundef %4, i32 noundef %5) #0 {
  %7 = alloca ptr, align 8
  %8 = alloca ptr, align 8
  %9 = alloca i32, align 4
  %10 = alloca ptr, align 8
  %11 = alloca ptr, align 8
  %12 = alloca i32, align 4
  %13 = alloca ptr, align 8
  store ptr %0, ptr %7, align 8
  store ptr %1, ptr %8, align 8
  store i32 %2, ptr %9, align 4
  store ptr %3, ptr %10, align 8
  store ptr %4, ptr %11, align 8
  store i32 %5, ptr %12, align 4
  call void @llvm.lifetime.start.p0(i64 8, ptr %13) #13
  %14 = call ptr @slurm_xcalloc(i64 noundef 1, i64 noundef 40, i1 noundef zeroext true, i1 noundef zeroext false, ptr noundef @.str.44, i32 noundef 4431, ptr noundef @__func__._add_signal_job_resp)
  store ptr %14, ptr %13, align 8
  %15 = load i32, ptr %9, align 4
  %16 = load ptr, ptr %13, align 8
  %17 = getelementptr inbounds nuw %struct.kill_jobs_resp_job_t, ptr %16, i32 0, i32 0
  store i32 %15, ptr %17, align 8
  %18 = load ptr, ptr %10, align 8
  %19 = icmp ne ptr %18, null
  br i1 %19, label %20, label %24

20:                                               ; preds = %6
  %21 = load ptr, ptr %10, align 8
  %22 = load ptr, ptr %13, align 8
  %23 = getelementptr inbounds nuw %struct.kill_jobs_resp_job_t, ptr %22, i32 0, i32 1
  store ptr %21, ptr %23, align 8
  br label %34

24:                                               ; preds = %6
  %25 = load i32, ptr %9, align 4
  %26 = icmp ne i32 %25, 0
  br i1 %26, label %27, label %33

27:                                               ; preds = %24
  %28 = load i32, ptr %9, align 4
  %29 = call ptr @slurm_strerror(i32 noundef %28)
  %30 = call ptr @xstrdup(ptr noundef %29)
  %31 = load ptr, ptr %13, align 8
  %32 = getelementptr inbounds nuw %struct.kill_jobs_resp_job_t, ptr %31, i32 0, i32 1
  store ptr %30, ptr %32, align 8
  br label %33

33:                                               ; preds = %27, %24
  br label %34

34:                                               ; preds = %33, %20
  %35 = call ptr @slurm_xcalloc(i64 noundef 1, i64 noundef 40, i1 noundef zeroext true, i1 noundef zeroext false, ptr noundef @.str.44, i32 noundef 4438, ptr noundef @__func__._add_signal_job_resp)
  %36 = load ptr, ptr %13, align 8
  %37 = getelementptr inbounds nuw %struct.kill_jobs_resp_job_t, ptr %36, i32 0, i32 2
  store ptr %35, ptr %37, align 8
  %38 = load ptr, ptr %13, align 8
  %39 = getelementptr inbounds nuw %struct.kill_jobs_resp_job_t, ptr %38, i32 0, i32 2
  %40 = load ptr, ptr %39, align 8
  %41 = load ptr, ptr %11, align 8
  call void @llvm.memcpy.p0.p0.i64(ptr align 8 %40, ptr align 8 %41, i64 40, i1 false)
  %42 = load ptr, ptr %11, align 8
  %43 = getelementptr inbounds nuw %struct.slurm_selected_step_t, ptr %42, i32 0, i32 0
  %44 = load ptr, ptr %43, align 8
  %45 = icmp ne ptr %44, null
  br i1 %45, label %46, label %55

46:                                               ; preds = %34
  %47 = load ptr, ptr %11, align 8
  %48 = getelementptr inbounds nuw %struct.slurm_selected_step_t, ptr %47, i32 0, i32 0
  %49 = load ptr, ptr %48, align 8
  %50 = call ptr @bit_copy(ptr noundef %49)
  %51 = load ptr, ptr %13, align 8
  %52 = getelementptr inbounds nuw %struct.kill_jobs_resp_job_t, ptr %51, i32 0, i32 2
  %53 = load ptr, ptr %52, align 8
  %54 = getelementptr inbounds nuw %struct.slurm_selected_step_t, ptr %53, i32 0, i32 0
  store ptr %50, ptr %54, align 8
  br label %55

55:                                               ; preds = %46, %34
  %56 = load i32, ptr %12, align 4
  %57 = load ptr, ptr %13, align 8
  %58 = getelementptr inbounds nuw %struct.kill_jobs_resp_job_t, ptr %57, i32 0, i32 3
  store i32 %56, ptr %58, align 8
  %59 = load ptr, ptr %8, align 8
  %60 = load ptr, ptr %13, align 8
  %61 = getelementptr inbounds nuw %struct.kill_jobs_resp_job_t, ptr %60, i32 0, i32 4
  store ptr %59, ptr %61, align 8
  %62 = load ptr, ptr %7, align 8
  %63 = getelementptr inbounds nuw %struct.signal_jobs_args_t, ptr %62, i32 0, i32 8
  %64 = load ptr, ptr %63, align 8
  %65 = load ptr, ptr %13, align 8
  call void @list_append(ptr noundef %64, ptr noundef %65)
  call void @llvm.lifetime.end.p0(i64 8, ptr %13) #13
  ret void
}