; Function Attrs: nounwind uwtable
define internal fastcc void @_add_signal_job_resp(ptr noundef readonly captures(none) %0, ptr noundef %1, i32 noundef %2, ptr noundef %3, ptr noundef readonly captures(none) %4, i32 noundef %5) unnamed_addr #0 {
  %7 = tail call ptr @slurm_xcalloc(i64 noundef 1, i64 noundef 40, i1 noundef zeroext true, i1 noundef zeroext false, ptr noundef nonnull @.str.44, i32 noundef 4431, ptr noundef nonnull @__func__._add_signal_job_resp) #27
  store i32 %2, ptr %7, align 8
  %.not = icmp eq ptr %3, null
  br i1 %.not, label %8, label %.sink.split

8:                                                ; preds = %6
  %.not21 = icmp eq i32 %2, 0
  br i1 %.not21, label %13, label %9

9:                                                ; preds = %8
  %10 = tail call ptr @slurm_strerror(i32 noundef %2) #27
  %11 = tail call ptr @xstrdup(ptr noundef %10) #27
  br label %.sink.split

.sink.split:                                      ; preds = %6, %9
  %.sink = phi ptr [ %11, %9 ], [ %3, %6 ]
  %12 = getelementptr inbounds nuw i8, ptr %7, i64 8
  store ptr %.sink, ptr %12, align 8
  br label %13

13:                                               ; preds = %.sink.split, %8
  %14 = tail call ptr @slurm_xcalloc(i64 noundef 1, i64 noundef 40, i1 noundef zeroext true, i1 noundef zeroext false, ptr noundef nonnull @.str.44, i32 noundef 4438, ptr noundef nonnull @__func__._add_signal_job_resp) #27
  %15 = getelementptr inbounds nuw i8, ptr %7, i64 16
  store ptr %14, ptr %15, align 8
  tail call void @llvm.memcpy.p0.p0.i64(ptr noundef nonnull align 8 dereferenceable(40) %14, ptr noundef nonnull align 8 dereferenceable(40) %4, i64 40, i1 false)
  %16 = load ptr, ptr %4, align 8
  %.not22 = icmp eq ptr %16, null
  br i1 %.not22, label %20, label %17

17:                                               ; preds = %13
  %18 = tail call ptr @bit_copy(ptr noundef nonnull %16) #27
  %19 = load ptr, ptr %15, align 8
  store ptr %18, ptr %19, align 8
  br label %20

20:                                               ; preds = %17, %13
  %21 = getelementptr inbounds nuw i8, ptr %7, i64 24
  store i32 %5, ptr %21, align 8
  %22 = getelementptr inbounds nuw i8, ptr %7, i64 32
  store ptr %1, ptr %22, align 8
  %23 = getelementptr inbounds nuw i8, ptr %0, i64 56
  %24 = load ptr, ptr %23, align 8
  tail call void @list_append(ptr noundef %24, ptr noundef nonnull %7) #27
  ret void
}